target datalayout = "e-m:e-p270:32:32-p271:32:32-p272:64:64-i64:64-i128:128-f80:128-n8:16:32:64-S128"
target triple = "x86_64-pc-linux-gnu"

%struct.ssl_connection_st = type { %struct.ssl_st, ptr, i32, ptr, ptr, ptr, i32, ptr, i32, i32, i32, i32, %struct.OSSL_TIME, %struct.OSSL_TIME, %struct.ossl_statem_st, i32, ptr, ptr, i64, i64, i64, %struct.ossl_quic_tls_callbacks_st, ptr, ptr, %struct.anon, ptr, ptr, ptr, i32, ptr, %struct.ssl_dane_st, ptr, ptr, ptr, ptr, i32, [64 x i8], [64 x i8], [64 x i8], [64 x i8], [64 x i8], [64 x i8], [64 x i8], [64 x i8], [64 x i8], [64 x i8], [64 x i8], [64 x i8], ptr, [64 x i8], i64, i32, i64, [32 x i8], ptr, ptr, ptr, i64, ptr, [32 x i8], i64, i32, ptr, ptr, i32, i32, ptr, ptr, ptr, ptr, ptr, i64, ptr, ptr, i64, i32, i32, i32, i64, i32, i32, i64, i64, i64, %struct.anon.1, ptr, i32, ptr, ptr, ptr, i32, ptr, ptr, ptr, i32, i32, i32, i32, ptr, i64, i32, ptr, %struct.srp_ctx_st, ptr, %struct.record_layer_st, ptr, ptr, ptr, ptr, i64, i32, i32, i32, i64, i64, i64, ptr, ptr, ptr, ptr, ptr, i64, ptr, i64, ptr, i64 }
%struct.ssl_st = type { i32, ptr, ptr, ptr, %struct.CRYPTO_REF_COUNT, ptr, %struct.crypto_ex_data_st }
%struct.CRYPTO_REF_COUNT = type { i32 }
%struct.crypto_ex_data_st = type { ptr, ptr }
%struct.OSSL_TIME = type { i64 }
%struct.ossl_statem_st = type { i32, i32, i32, i32, i32, i32, i32, i32, i32, i32, i32, i32, i32, ptr, ptr, ptr, i8 }
%struct.ossl_quic_tls_callbacks_st = type { ptr, ptr, ptr, ptr, ptr, ptr }
%struct.anon = type { i64, [32 x i8], [32 x i8], ptr, ptr, i32, i32, i32, i32, [2 x i8], i32, i32, i32, i32, %struct.anon.0, [64 x i8], i64, [64 x i8], i64, i32, i32, ptr, i64, ptr, i64, i32, i8, i8, i16, ptr, i16 }
%struct.anon.0 = type { [128 x i8], i64, [128 x i8], i64, i64, i32, ptr, ptr, [4 x ptr], [4 x i16], i64, i32, ptr, i64, ptr, i64, ptr, ptr, ptr, i32, i64, ptr, i32, ptr, i64, ptr, i64, ptr, i64, ptr, ptr, ptr, ptr, i64, i64, ptr, ptr, i32, i32, i32, i32 }
%struct.ssl_dane_st = type { ptr, ptr, ptr, ptr, ptr, i32, i32, i32, i64 }
%struct.anon.1 = type { [29 x i8], ptr, ptr, ptr, i32, ptr, i16, i32, %struct.anon.2, i32, i32, i64, ptr, i64, ptr, i64, ptr, i64, ptr, i64, ptr, i64, ptr, ptr, ptr, ptr, ptr, ptr, ptr, i64, ptr, i64, i32, i32, i32, i32, ptr, i64, i32, i8, i32, [4 x i32], i32, i8, i8, i8, i8 }
%struct.anon.2 = type { ptr, ptr, ptr, i64 }
%struct.srp_ctx_st = type { ptr, ptr, ptr, ptr, ptr, ptr, ptr, ptr, ptr, ptr, ptr, ptr, ptr, ptr, i32, i64 }
%struct.record_layer_st = type { ptr, ptr, ptr, ptr, ptr, ptr, ptr, ptr, i64, i32, i64, [4 x i8], i64, i64, i8, ptr, i32, ptr, ptr, ptr, i64, i64, i64, i64, [32 x %struct.tls_record_st] }
%struct.tls_record_st = type { ptr, i32, i8, ptr, ptr, i64, i64, i16, [8 x i8] }
%struct.ssl_method_st = type { i32, i32, i64, ptr, ptr, ptr, ptr, ptr, ptr, ptr, ptr, ptr, ptr, ptr, ptr, ptr, ptr, ptr, ptr, ptr, ptr, ptr, ptr, ptr, ptr, ptr, ptr, ptr, ptr, ptr, ptr, ptr }

; Function Attrs: nounwind uwtable
define i32 @ssl3_shutdown(ptr noundef %0) #0 {
  %2 = alloca i32, align 4
  %3 = alloca ptr, align 8
  %4 = alloca i32, align 4
  %5 = alloca ptr, align 8
  %6 = alloca i32, align 4
  %7 = alloca i64, align 8
  store ptr %0, ptr %3, align 8, !tbaa !23
  call void @llvm.lifetime.start.p0(i64 4, ptr %4) #10
  call void @llvm.lifetime.start.p0(i64 8, ptr %5) #10
  %8 = load ptr, ptr %3, align 8, !tbaa !23
  %9 = icmp eq ptr %8, null
  br i1 %9, label %10, label %11

10:                                               ; preds = %1
  br label %21

11:                                               ; preds = %1
  %12 = load ptr, ptr %3, align 8, !tbaa !23
  %13 = getelementptr inbounds nuw %struct.ssl_st, ptr %12, i32 0, i32 0
  %14 = load i32, ptr %13, align 8, !tbaa !25
  %15 = icmp eq i32 %14, 0
  br i1 %15, label %16, label %18

16:                                               ; preds = %11
  %17 = load ptr, ptr %3, align 8, !tbaa !23
  br label %19

18:                                               ; preds = %11
  br label %19

19:                                               ; preds = %18, %16
  %20 = phi ptr [ %17, %16 ], [ null, %18 ]
  br label %21

21:                                               ; preds = %19, %10
  %22 = phi ptr [ null, %10 ], [ %20, %19 ]
  store ptr %22, ptr %5, align 8, !tbaa !13
  %23 = load ptr, ptr %5, align 8, !tbaa !13
  %24 = icmp eq ptr %23, null
  br i1 %24, label %25, label %26

25:                                               ; preds = %21
  store i32 0, ptr %2, align 4
  store i32 1, ptr %6, align 4
  br label %116

26:                                               ; preds = %21
  %27 = load ptr, ptr %5, align 8, !tbaa !13
  %28 = getelementptr inbounds nuw %struct.ssl_connection_st, ptr %27, i32 0, i32 10
  %29 = load i32, ptr %28, align 8, !tbaa !247
  %30 = icmp ne i32 %29, 0
  br i1 %30, label %35, label %31

31:                                               ; preds = %26
  %32 = load ptr, ptr %3, align 8, !tbaa !23
  %33 = call i32 @SSL_in_before(ptr noundef %32)
  %34 = icmp ne i32 %33, 0
  br i1 %34, label %35, label %38

35:                                               ; preds = %31, %26
  %36 = load ptr, ptr %5, align 8, !tbaa !13
  %37 = getelementptr inbounds nuw %struct.ssl_connection_st, ptr %36, i32 0, i32 11
  store i32 3, ptr %37, align 4, !tbaa !248
  store i32 1, ptr %2, align 4
  store i32 1, ptr %6, align 4
  br label %116

38:                                               ; preds = %31
  %39 = load ptr, ptr %5, align 8, !tbaa !13
  %40 = getelementptr inbounds nuw %struct.ssl_connection_st, ptr %39, i32 0, i32 11
  %41 = load i32, ptr %40, align 4, !tbaa !248
  %42 = and i32 %41, 1
  %43 = icmp ne i32 %42, 0
  br i1 %43, label %58, label %44

44:                                               ; preds = %38
  %45 = load ptr, ptr %5, align 8, !tbaa !13
  %46 = getelementptr inbounds nuw %struct.ssl_connection_st, ptr %45, i32 0, i32 11
  %47 = load i32, ptr %46, align 4, !tbaa !248
  %48 = or i32 %47, 1
  store i32 %48, ptr %46, align 4, !tbaa !248
  %49 = load ptr, ptr %5, align 8, !tbaa !13
  %50 = call i32 @ssl3_send_alert(ptr noundef %49, i32 noundef 1, i32 noundef 0)
  %51 = load ptr, ptr %5, align 8, !tbaa !13
  %52 = getelementptr inbounds nuw %struct.ssl_connection_st, ptr %51, i32 0, i32 24
  %53 = getelementptr inbounds nuw %struct.anon, ptr %52, i32 0, i32 8
  %54 = load i32, ptr %53, align 4, !tbaa !249
  %55 = icmp sgt i32 %54, 0
  br i1 %55, label %56, label %57

56:                                               ; preds = %44
  store i32 -1, ptr %2, align 4
  store i32 1, ptr %6, align 4
  br label %116

57:                                               ; preds = %44
  br label %103

58:                                               ; preds = %38
  %59 = load ptr, ptr %5, align 8, !tbaa !13
  %60 = getelementptr inbounds nuw %struct.ssl_connection_st, ptr %59, i32 0, i32 24
  %61 = getelementptr inbounds nuw %struct.anon, ptr %60, i32 0, i32 8
  %62 = load i32, ptr %61, align 4, !tbaa !249
  %63 = icmp sgt i32 %62, 0
  br i1 %63, label %64, label %77

64:                                               ; preds = %58
  %65 = load ptr, ptr %3, align 8, !tbaa !23
  %66 = getelementptr inbounds nuw %struct.ssl_st, ptr %65, i32 0, i32 3
  %67 = load ptr, ptr %66, align 8, !tbaa !33
  %68 = getelementptr inbounds nuw %struct.ssl_method_st, ptr %67, i32 0, i32 19
  %69 = load ptr, ptr %68, align 8, !tbaa !250
  %70 = load ptr, ptr %3, align 8, !tbaa !23
  %71 = call i32 %69(ptr noundef %70)
  store i32 %71, ptr %4, align 4, !tbaa !18
  %72 = load i32, ptr %4, align 4, !tbaa !18
  %73 = icmp eq i32 %72, -1
  br i1 %73, label %74, label %76

74:                                               ; preds = %64
  %75 = load i32, ptr %4, align 4, !tbaa !18
  store i32 %75, ptr %2, align 4
  store i32 1, ptr %6, align 4
  br label %116

76:                                               ; preds = %64
  br label %102

77:                                               ; preds = %58
  %78 = load ptr, ptr %5, align 8, !tbaa !13
  %79 = getelementptr inbounds nuw %struct.ssl_connection_st, ptr %78, i32 0, i32 11
  %80 = load i32, ptr %79, align 4, !tbaa !248
  %81 = and i32 %80, 2
  %82 = icmp ne i32 %81, 0
  br i1 %82, label %101, label %83

83:                                               ; preds = %77
  call void @llvm.lifetime.start.p0(i64 8, ptr %7) #10
  %84 = load ptr, ptr %3, align 8, !tbaa !23
  %85 = getelementptr inbounds nuw %struct.ssl_st, ptr %84, i32 0, i32 3
  %86 = load ptr, ptr %85, align 8, !tbaa !33
  %87 = getelementptr inbounds nuw %struct.ssl_method_st, ptr %86, i32 0, i32 17
  %88 = load ptr, ptr %87, align 8, !tbaa !251
  %89 = load ptr, ptr %3, align 8, !tbaa !23
  %90 = call i32 %88(ptr noundef %89, i8 noundef zeroext 0, ptr noundef null, ptr noundef null, i64 noundef 0, i32 noundef 0, ptr noundef %7)
  %91 = load ptr, ptr %5, align 8, !tbaa !13
  %92 = getelementptr inbounds nuw %struct.ssl_connection_st, ptr %91, i32 0, i32 11
  %93 = load i32, ptr %92, align 4, !tbaa !248
  %94 = and i32 %93, 2
  %95 = icmp ne i32 %94, 0
  br i1 %95, label %97, label %96

96:                                               ; preds = %83
  store i32 -1, ptr %2, align 4
  store i32 1, ptr %6, align 4
  br label %98

97:                                               ; preds = %83
  store i32 0, ptr %6, align 4
  br label %98

98:                                               ; preds = %97, %96
  call void @llvm.lifetime.end.p0(i64 8, ptr %7) #10
  %99 = load i32, ptr %6, align 4
  switch i32 %99, label %116 [
    i32 0, label %100
  ]

100:                                              ; preds = %98
  br label %101

101:                                              ; preds = %100, %77
  br label %102

102:                                              ; preds = %101, %76
  br label %103

103:                                              ; preds = %102, %57
  %104 = load ptr, ptr %5, align 8, !tbaa !13
  %105 = getelementptr inbounds nuw %struct.ssl_connection_st, ptr %104, i32 0, i32 11
  %106 = load i32, ptr %105, align 4, !tbaa !248
  %107 = icmp eq i32 %106, 3
  br i1 %107, label %108, label %115

108:                                              ; preds = %103
  %109 = load ptr, ptr %5, align 8, !tbaa !13
  %110 = getelementptr inbounds nuw %struct.ssl_connection_st, ptr %109, i32 0, i32 24
  %111 = getelementptr inbounds nuw %struct.anon, ptr %110, i32 0, i32 8
  %112 = load i32, ptr %111, align 4, !tbaa !249
  %113 = icmp eq i32 %112, 0
  br i1 %113, label %114, label %115

114:                                              ; preds = %108
  store i32 1, ptr %2, align 4
  store i32 1, ptr %6, align 4
  br label %116

115:                                              ; preds = %108, %103
  store i32 0, ptr %2, align 4
  store i32 1, ptr %6, align 4
  br label %116

116:                                              ; preds = %115, %114, %98, %74, %56, %35, %25
  call void @llvm.lifetime.end.p0(i64 8, ptr %5) #10
  call void @llvm.lifetime.end.p0(i64 4, ptr %4) #10
  %117 = load i32, ptr %2, align 4
  ret i32 %117
}