; Function Attrs: nounwind uwtable
define range(i32 -1, 2) i32 @ssl3_shutdown(ptr noundef %0) local_unnamed_addr #4 {
  %2 = alloca i64, align 8
  %3 = icmp eq ptr %0, null
  br i1 %3, label %.thread, label %4

4:                                                ; preds = %1
  %5 = load i32, ptr %0, align 8, !tbaa !10
  %6 = icmp eq i32 %5, 0
  br i1 %6, label %7, label %.thread

7:                                                ; preds = %4
  %8 = getelementptr inbounds nuw i8, ptr %0, i64 128
  %9 = load i32, ptr %8, align 8, !tbaa !225
  %.not = icmp eq i32 %9, 0
  br i1 %.not, label %10, label %12

10:                                               ; preds = %7
  %11 = tail call i32 @SSL_in_before(ptr noundef nonnull %0) #18
  %.not27 = icmp eq i32 %11, 0
  br i1 %.not27, label %14, label %12

12:                                               ; preds = %10, %7
  %13 = getelementptr inbounds nuw i8, ptr %0, i64 132
  store i32 3, ptr %13, align 4, !tbaa !226
  br label %.thread

14:                                               ; preds = %10
  %15 = getelementptr inbounds nuw i8, ptr %0, i64 132
  %16 = load i32, ptr %15, align 4, !tbaa !226
  %17 = and i32 %16, 1
  %.not28 = icmp eq i32 %17, 0
  br i1 %.not28, label %18, label %24

18:                                               ; preds = %14
  %19 = or disjoint i32 %16, 1
  store i32 %19, ptr %15, align 4, !tbaa !226
  %20 = tail call i32 @ssl3_send_alert(ptr noundef nonnull %0, i32 noundef 1, i32 noundef 0) #18
  %21 = getelementptr inbounds nuw i8, ptr %0, i64 452
  %22 = load i32, ptr %21, align 4, !tbaa !227
  %23 = icmp sgt i32 %22, 0
  br i1 %23, label %.thread, label %thread-pre-split

24:                                               ; preds = %14
  %25 = getelementptr inbounds nuw i8, ptr %0, i64 452
  %26 = load i32, ptr %25, align 4, !tbaa !227
  %27 = icmp sgt i32 %26, 0
  br i1 %27, label %28, label %35

28:                                               ; preds = %24
  %29 = getelementptr inbounds nuw i8, ptr %0, i64 24
  %30 = load ptr, ptr %29, align 8, !tbaa !18
  %31 = getelementptr inbounds nuw i8, ptr %30, i64 144
  %32 = load ptr, ptr %31, align 8, !tbaa !228
  %33 = tail call i32 %32(ptr noundef nonnull %0) #18
  %34 = icmp eq i32 %33, -1
  br i1 %34, label %.thread, label %thread-pre-split

35:                                               ; preds = %24
  %36 = and i32 %16, 2
  %.not29 = icmp eq i32 %36, 0
  br i1 %.not29, label %37, label %thread-pre-split

37:                                               ; preds = %35
  call void @llvm.lifetime.start.p0(i64 8, ptr nonnull %2) #18
  %38 = getelementptr inbounds nuw i8, ptr %0, i64 24
  %39 = load ptr, ptr %38, align 8, !tbaa !18
  %40 = getelementptr inbounds nuw i8, ptr %39, i64 128
  %41 = load ptr, ptr %40, align 8, !tbaa !229
  %42 = call i32 %41(ptr noundef nonnull %0, i8 noundef zeroext 0, ptr noundef null, ptr noundef null, i64 noundef 0, i32 noundef 0, ptr noundef nonnull %2) #18
  %43 = load i32, ptr %15, align 4, !tbaa !226
  %44 = and i32 %43, 2
  %.not30.not = icmp eq i32 %44, 0
  call void @llvm.lifetime.end.p0(i64 8, ptr nonnull %2) #18
  br i1 %.not30.not, label %.thread, label %45

thread-pre-split:                                 ; preds = %18, %35, %28
  %.pr = load i32, ptr %15, align 4, !tbaa !226
  br label %45

45:                                               ; preds = %thread-pre-split, %37
  %46 = phi i32 [ %.pr, %thread-pre-split ], [ %43, %37 ]
  %47 = icmp eq i32 %46, 3
  br i1 %47, label %48, label %52

48:                                               ; preds = %45
  %49 = getelementptr inbounds nuw i8, ptr %0, i64 452
  %50 = load i32, ptr %49, align 4, !tbaa !227
  %51 = icmp eq i32 %50, 0
  br i1 %51, label %.thread, label %52

52:                                               ; preds = %48, %45
  br label %.thread

.thread:                                          ; preds = %1, %4, %48, %28, %18, %37, %52, %12
  %.023 = phi i32 [ 1, %12 ], [ 0, %52 ], [ -1, %37 ], [ -1, %18 ], [ -1, %28 ], [ 1, %48 ], [ 0, %4 ], [ 0, %1 ]
  ret i32 %.023
}